; Function Attrs: mustprogress uwtable
define noundef i32 @unumrf_resultGetFirstDecimalNumber_77(ptr noundef %0, ptr noundef %1, i32 noundef %2, ptr noundef %3) local_unnamed_addr #1 personality ptr @__gxx_personality_v0 {
  %5 = alloca %"class.icu_77::CharStringByteSink", align 8
  %6 = alloca %"class.icu_77::number::impl::DecNum", align 8
  %7 = alloca %"class.icu_77::CharString", align 8
  %8 = load i32, ptr %3, align 4, !tbaa !13
  %9 = icmp slt i32 %8, 1
  br i1 %9, label %10, label %_ZN6icu_7713IcuCApiHelperI21UFormattedNumberRangeNS_6number4impl25UFormattedNumberRangeImplELi1178881536EE8validateEPKS1_R10UErrorCode.exit.thread

10:                                               ; preds = %4
  %11 = icmp eq ptr %0, null
  br i1 %11, label %.sink.split.i, label %12

12:                                               ; preds = %10
  %13 = getelementptr inbounds nuw i8, ptr %0, i64 16
  %14 = load i32, ptr %13, align 4, !tbaa !20
  %.not9.i = icmp eq i32 %14, 1178881536
  br i1 %.not9.i, label %_ZN6icu_7713IcuCApiHelperI21UFormattedNumberRangeNS_6number4impl25UFormattedNumberRangeImplELi1178881536EE8validateEPKS1_R10UErrorCode.exit, label %.sink.split.i

.sink.split.i:                                    ; preds = %12, %10
  %.sink.i = phi i32 [ 1, %10 ], [ 3, %12 ]
  store i32 %.sink.i, ptr %3, align 4, !tbaa !13
  br label %_ZN6icu_7713IcuCApiHelperI21UFormattedNumberRangeNS_6number4impl25UFormattedNumberRangeImplELi1178881536EE8validateEPKS1_R10UErrorCode.exit.thread

_ZN6icu_7713IcuCApiHelperI21UFormattedNumberRangeNS_6number4impl25UFormattedNumberRangeImplELi1178881536EE8validateEPKS1_R10UErrorCode.exit: ; preds = %12
  call void @llvm.lifetime.start.p0(i64 96, ptr nonnull %6) #15
  call void @_ZN6icu_776number4impl6DecNumC1Ev(ptr noundef nonnull align 8 dereferenceable(92) %6)
  call void @llvm.lifetime.start.p0(i64 64, ptr nonnull %7) #15
  %15 = getelementptr inbounds nuw i8, ptr %0, i64 352
  %16 = invoke noundef nonnull align 8 dereferenceable(92) ptr @_ZNK6icu_776number4impl15DecimalQuantity8toDecNumERNS1_6DecNumER10UErrorCode(ptr noundef nonnull align 8 dereferenceable(66) %15, ptr noundef nonnull align 8 dereferenceable(92) %6, ptr noundef nonnull align 4 dereferenceable(4) %3)
          to label %17 unwind label %36

17:                                               ; preds = %_ZN6icu_7713IcuCApiHelperI21UFormattedNumberRangeNS_6number4impl25UFormattedNumberRangeImplELi1178881536EE8validateEPKS1_R10UErrorCode.exit
  call void @llvm.experimental.noalias.scope.decl(metadata !84)
  invoke void @_ZN6icu_7715MaybeStackArrayIcLi40EEC1Ev(ptr noundef nonnull align 8 dereferenceable(60) %7)
          to label %.noexc unwind label %36

.noexc:                                           ; preds = %17
  %18 = getelementptr inbounds nuw i8, ptr %7, i64 56
  store i32 0, ptr %18, align 8, !tbaa !87, !alias.scope !84
  %19 = load ptr, ptr %7, align 8, !tbaa !3, !alias.scope !84
  store i8 0, ptr %19, align 1, !tbaa !89
  call void @llvm.lifetime.start.p0(i64 16, ptr nonnull %5) #15, !noalias !84
  invoke void @_ZN6icu_7718CharStringByteSinkC1EPNS_10CharStringE(ptr noundef nonnull align 8 dereferenceable(16) %5, ptr noundef nonnull align 8 %7)
          to label %20 unwind label %21

20:                                               ; preds = %.noexc
  invoke void @_ZNK6icu_776number4impl6DecNum8toStringERNS_8ByteSinkER10UErrorCode(ptr noundef nonnull align 8 dereferenceable(92) %16, ptr noundef nonnull align 8 dereferenceable(8) %5, ptr noundef nonnull align 4 dereferenceable(4) %3)
          to label %26 unwind label %23

21:                                               ; preds = %.noexc
  %22 = landingpad { ptr, i32 }
          cleanup
  br label %25

23:                                               ; preds = %20
  %24 = landingpad { ptr, i32 }
          cleanup
  call void @_ZN6icu_7718CharStringByteSinkD1Ev(ptr noundef nonnull align 8 dereferenceable(16) %5) #15
  br label %25

25:                                               ; preds = %23, %21
  %.pn.i = phi { ptr, i32 } [ %24, %23 ], [ %22, %21 ]
  call void @llvm.lifetime.end.p0(i64 16, ptr nonnull %5) #15, !noalias !84
  call void @_ZN6icu_7715MaybeStackArrayIcLi40EED1Ev(ptr noundef nonnull align 8 dereferenceable(60) %7) #15
  br label %.body

26:                                               ; preds = %20
  call void @_ZN6icu_7718CharStringByteSinkD1Ev(ptr noundef nonnull align 8 dereferenceable(16) %5) #15
  call void @llvm.lifetime.end.p0(i64 16, ptr nonnull %5) #15, !noalias !84
  %27 = invoke noundef i32 @_ZNK6icu_7710CharString7extractEPciR10UErrorCode(ptr noundef nonnull align 8 dereferenceable(60) %7, ptr noundef %1, i32 noundef %2, ptr noundef nonnull align 4 dereferenceable(4) %3)
          to label %28 unwind label %38

28:                                               ; preds = %26
  call void @_ZN6icu_7715MaybeStackArrayIcLi40EED1Ev(ptr noundef nonnull align 8 dereferenceable(60) %7) #15
  call void @llvm.lifetime.end.p0(i64 64, ptr nonnull %7) #15
  %29 = getelementptr inbounds nuw i8, ptr %6, i64 12
  %30 = load i8, ptr %29, align 4, !tbaa !90
  %.not.i.i.i = icmp eq i8 %30, 0
  br i1 %.not.i.i.i, label %_ZN6icu_776number4impl6DecNumD2Ev.exit, label %31

31:                                               ; preds = %28
  %32 = load ptr, ptr %6, align 8, !tbaa !93
  invoke void @uprv_free_77(ptr noundef %32)
          to label %_ZN6icu_776number4impl6DecNumD2Ev.exit unwind label %33

33:                                               ; preds = %31
  %34 = landingpad { ptr, i32 }
          catch ptr null
  %35 = extractvalue { ptr, i32 } %34, 0
  call void @__clang_call_terminate(ptr %35) #17
  unreachable

_ZN6icu_776number4impl6DecNumD2Ev.exit:           ; preds = %28, %31
  call void @llvm.lifetime.end.p0(i64 96, ptr nonnull %6) #15
  br label %_ZN6icu_7713IcuCApiHelperI21UFormattedNumberRangeNS_6number4impl25UFormattedNumberRangeImplELi1178881536EE8validateEPKS1_R10UErrorCode.exit.thread

36:                                               ; preds = %17, %_ZN6icu_7713IcuCApiHelperI21UFormattedNumberRangeNS_6number4impl25UFormattedNumberRangeImplELi1178881536EE8validateEPKS1_R10UErrorCode.exit
  %37 = landingpad { ptr, i32 }
          cleanup
  br label %.body

38:                                               ; preds = %26
  %39 = landingpad { ptr, i32 }
          cleanup
  call void @_ZN6icu_7715MaybeStackArrayIcLi40EED1Ev(ptr noundef nonnull align 8 dereferenceable(60) %7) #15
  br label %.body

.body:                                            ; preds = %36, %25, %38
  %.pn = phi { ptr, i32 } [ %39, %38 ], [ %37, %36 ], [ %.pn.i, %25 ]
  call void @llvm.lifetime.end.p0(i64 64, ptr nonnull %7) #15
  call void @_ZN6icu_776number4impl6DecNumD2Ev(ptr noundef nonnull align 8 dereferenceable(92) %6) #15
  call void @llvm.lifetime.end.p0(i64 96, ptr nonnull %6) #15
  resume { ptr, i32 } %.pn

_ZN6icu_7713IcuCApiHelperI21UFormattedNumberRangeNS_6number4impl25UFormattedNumberRangeImplELi1178881536EE8validateEPKS1_R10UErrorCode.exit.thread: ; preds = %.sink.split.i, %4, %_ZN6icu_776number4impl6DecNumD2Ev.exit
  %.012 = phi i32 [ %27, %_ZN6icu_776number4impl6DecNumD2Ev.exit ], [ 0, %4 ], [ 0, %.sink.split.i ]
  ret i32 %.012
}